; Function Attrs: nounwind sspstrong uwtable
define internal zeroext i1 @esp_is_before_version_5(ptr noundef %opaque, i32 noundef %version_id) #0 {
entry:
  %call.i = tail call ptr @object_dynamic_cast_assert(ptr noundef %opaque, ptr noundef nonnull @.str.3, ptr noundef nonnull @.str.104, i32 noundef 20, ptr noundef nonnull @__func__.ESP) #10
  %mig_version_id = getelementptr inbounds nuw i8, ptr %call.i, i64 497
  %0 = load i8, ptr %mig_version_id, align 1
  %conv = zext i8 %0 to i32
  %cond = tail call i32 @llvm.smin.i32(i32 %version_id, i32 %conv)
  %cmp2 = icmp slt i32 %cond, 5
  ret i1 %cmp2
}